ccopy_reg
_reconstructor
p0
(cparse.point
ExpPoint
p1
c__builtin__
object
p2
Ntp3
Rp4
(dp5
S'stats'
p6
ccollections
defaultdict
p7
(cparse.point
Measurement
p8
tp9
Rp10
sS'id'
p11
S'experiment-scripts-master'
p12
sb.